target datalayout = "e-m:e-p270:32:32-p271:32:32-p272:64:64-i64:64-i128:128-f80:128-n8:16:32:64-S128"
target triple = "x86_64-pc-linux-gnu"

%struct._generic_N_Vector = type { ptr, ptr, ptr }
%struct._N_VectorContent_Serial = type { i64, i32, ptr }

; Function Attrs: nounwind uwtable
define double @N_VL1Norm_Serial(ptr noundef %0) #0 {
  %2 = alloca ptr, align 8
  %3 = alloca i64, align 8
  %4 = alloca i64, align 8
  %5 = alloca double, align 8
  %6 = alloca ptr, align 8
  store ptr %0, ptr %2, align 8, !tbaa !10
  call void @llvm.lifetime.start.p0(i64 8, ptr %3) #6
  call void @llvm.lifetime.start.p0(i64 8, ptr %4) #6
  call void @llvm.lifetime.start.p0(i64 8, ptr %5) #6
  call void @llvm.lifetime.start.p0(i64 8, ptr %6) #6
  store double 0.000000e+00, ptr %5, align 8, !tbaa !72
  store ptr null, ptr %6, align 8, !tbaa !69
  %7 = load ptr, ptr %2, align 8, !tbaa !10
  %8 = getelementptr inbounds nuw %struct._generic_N_Vector, ptr %7, i32 0, i32 0
  %9 = load ptr, ptr %8, align 8, !tbaa !61
  %10 = getelementptr inbounds nuw %struct._N_VectorContent_Serial, ptr %9, i32 0, i32 0
  %11 = load i64, ptr %10, align 8, !tbaa !62
  store i64 %11, ptr %4, align 8, !tbaa !3
  %12 = load ptr, ptr %2, align 8, !tbaa !10
  %13 = getelementptr inbounds nuw %struct._generic_N_Vector, ptr %12, i32 0, i32 0
  %14 = load ptr, ptr %13, align 8, !tbaa !61
  %15 = getelementptr inbounds nuw %struct._N_VectorContent_Serial, ptr %14, i32 0, i32 2
  %16 = load ptr, ptr %15, align 8, !tbaa !67
  store ptr %16, ptr %6, align 8, !tbaa !69
  store i64 0, ptr %3, align 8, !tbaa !3
  br label %17

17:                                               ; preds = %29, %1
  %18 = load i64, ptr %3, align 8, !tbaa !3
  %19 = load i64, ptr %4, align 8, !tbaa !3
  %20 = icmp slt i64 %18, %19
  br i1 %20, label %21, label %32

21:                                               ; preds = %17
  %22 = load ptr, ptr %6, align 8, !tbaa !69
  %23 = load i64, ptr %3, align 8, !tbaa !3
  %24 = getelementptr inbounds double, ptr %22, i64 %23
  %25 = load double, ptr %24, align 8, !tbaa !72
  %26 = call double @llvm.fabs.f64(double %25)
  %27 = load double, ptr %5, align 8, !tbaa !72
  %28 = fadd double %27, %26
  store double %28, ptr %5, align 8, !tbaa !72
  br label %29

29:                                               ; preds = %21
  %30 = load i64, ptr %3, align 8, !tbaa !3
  %31 = add nsw i64 %30, 1
  store i64 %31, ptr %3, align 8, !tbaa !3
  br label %17

32:                                               ; preds = %17
  %33 = load double, ptr %5, align 8, !tbaa !72
  call void @llvm.lifetime.end.p0(i64 8, ptr %6) #6
  call void @llvm.lifetime.end.p0(i64 8, ptr %5) #6
  call void @llvm.lifetime.end.p0(i64 8, ptr %4) #6
  call void @llvm.lifetime.end.p0(i64 8, ptr %3) #6
  ret double %33
}